target datalayout = "e-m:e-p270:32:32-p271:32:32-p272:64:64-i64:64-i128:128-f80:128-n8:16:32:64-S128"
target triple = "x86_64-pc-linux-gnu"

%struct.UNSP = type { ptr, ptr, i32, i32, i32, i32, ptr }

; Function Attrs: nounwind uwtable
define i32 @get_byte(ptr noundef %0) #0 {
  %2 = alloca i32, align 4
  %3 = alloca ptr, align 8
  %4 = alloca i32, align 4
  store ptr %0, ptr %3, align 8
  %5 = load ptr, ptr %3, align 8
  %6 = getelementptr inbounds %struct.UNSP, ptr %5, i32 0, i32 0
  %7 = load ptr, ptr %6, align 8
  %8 = load ptr, ptr %3, align 8
  %9 = getelementptr inbounds %struct.UNSP, ptr %8, i32 0, i32 1
  %10 = load ptr, ptr %9, align 8
  %11 = icmp uge ptr %7, %10
  br i1 %11, label %12, label %15

12:                                               ; preds = %1
  %13 = load ptr, ptr %3, align 8
  %14 = getelementptr inbounds %struct.UNSP, ptr %13, i32 0, i32 4
  store i32 1, ptr %14, align 8
  store i32 255, ptr %2, align 4
  br label %27

15:                                               ; preds = %1
  %16 = load ptr, ptr %3, align 8
  %17 = getelementptr inbounds %struct.UNSP, ptr %16, i32 0, i32 0
  %18 = load ptr, ptr %17, align 8
  %19 = load i8, ptr %18, align 1
  %20 = sext i8 %19 to i32
  store i32 %20, ptr %4, align 4
  %21 = load ptr, ptr %3, align 8
  %22 = getelementptr inbounds %struct.UNSP, ptr %21, i32 0, i32 0
  %23 = load ptr, ptr %22, align 8
  %24 = getelementptr inbounds i8, ptr %23, i32 1
  store ptr %24, ptr %22, align 8
  %25 = load i32, ptr %4, align 4
  %26 = and i32 %25, 255
  store i32 %26, ptr %2, align 4
  br label %27

27:                                               ; preds = %15, %12
  %28 = load i32, ptr %2, align 4
  ret i32 %28
}

; Function Attrs: nounwind uwtable
define i32 @get_bitmap(ptr noundef %0, i32 noundef %1) #0 {
  %3 = alloca i32, align 4
  %4 = alloca ptr, align 8
  %5 = alloca i32, align 4
  %6 = alloca i32, align 4
  store ptr %0, ptr %4, align 8
  store i32 %1, ptr %5, align 4
  store i32 0, ptr %6, align 4
  %7 = load i32, ptr %5, align 4
  %8 = icmp sle i32 %7, 0
  br i1 %8, label %9, label %10

9:                                                ; preds = %2
  store i32 0, ptr %3, align 4
  br label %61

10:                                               ; preds = %2
  br label %11

11:                                               ; preds = %58, %10
  %12 = load i32, ptr %5, align 4
  %13 = add i32 %12, -1
  store i32 %13, ptr %5, align 4
  %14 = icmp ne i32 %12, 0
  br i1 %14, label %15, label %59

15:                                               ; preds = %11
  %16 = load ptr, ptr %4, align 8
  %17 = getelementptr inbounds %struct.UNSP, ptr %16, i32 0, i32 2
  %18 = load i32, ptr %17, align 8
  %19 = lshr i32 %18, 1
  store i32 %19, ptr %17, align 8
  %20 = load i32, ptr %6, align 4
  %21 = shl i32 %20, 1
  store i32 %21, ptr %6, align 4
  %22 = load ptr, ptr %4, align 8
  %23 = getelementptr inbounds %struct.UNSP, ptr %22, i32 0, i32 3
  %24 = load i32, ptr %23, align 4
  %25 = load ptr, ptr %4, align 8
  %26 = getelementptr inbounds %struct.UNSP, ptr %25, i32 0, i32 2
  %27 = load i32, ptr %26, align 8
  %28 = icmp uge i32 %24, %27
  br i1 %28, label %29, label %39

29:                                               ; preds = %15
  %30 = load ptr, ptr %4, align 8
  %31 = getelementptr inbounds %struct.UNSP, ptr %30, i32 0, i32 2
  %32 = load i32, ptr %31, align 8
  %33 = load ptr, ptr %4, align 8
  %34 = getelementptr inbounds %struct.UNSP, ptr %33, i32 0, i32 3
  %35 = load i32, ptr %34, align 4
  %36 = sub i32 %35, %32
  store i32 %36, ptr %34, align 4
  %37 = load i32, ptr %6, align 4
  %38 = or i32 %37, 1
  store i32 %38, ptr %6, align 4
  br label %39

39:                                               ; preds = %29, %15
  %40 = load ptr, ptr %4, align 8
  %41 = getelementptr inbounds %struct.UNSP, ptr %40, i32 0, i32 2
  %42 = load i32, ptr %41, align 8
  %43 = icmp ult i32 %42, 16777216
  br i1 %43, label %44, label %58

44:                                               ; preds = %39
  %45 = load ptr, ptr %4, align 8
  %46 = getelementptr inbounds %struct.UNSP, ptr %45, i32 0, i32 2
  %47 = load i32, ptr %46, align 8
  %48 = shl i32 %47, 8
  store i32 %48, ptr %46, align 8
  %49 = load ptr, ptr %4, align 8
  %50 = getelementptr inbounds %struct.UNSP, ptr %49, i32 0, i32 3
  %51 = load i32, ptr %50, align 4
  %52 = shl i32 %51, 8
  %53 = load ptr, ptr %4, align 8
  %54 = call i32 @get_byte(ptr noundef %53)
  %55 = or i32 %52, %54
  %56 = load ptr, ptr %4, align 8
  %57 = getelementptr inbounds %struct.UNSP, ptr %56, i32 0, i32 3
  store i32 %55, ptr %57, align 4
  br label %58

58:                                               ; preds = %44, %39
  br label %11

59:                                               ; preds = %11
  %60 = load i32, ptr %6, align 4
  store i32 %60, ptr %3, align 4
  br label %61

61:                                               ; preds = %59, %9
  %62 = load i32, ptr %3, align 4
  ret i32 %62
}