; Function Attrs: nofree norecurse nosync nounwind memory(read, argmem: readwrite, inaccessiblemem: none) uwtable
define i32 @get_bitmap(ptr nocapture noundef %0, i32 noundef %1) local_unnamed_addr #4 {
  %3 = icmp slt i32 %1, 1
  br i1 %3, label %.loopexit, label %.preheader

.preheader:                                       ; preds = %2
  %4 = getelementptr inbounds i8, ptr %0, i64 16
  %5 = getelementptr inbounds i8, ptr %0, i64 20
  %.promoted = load i32, ptr %4, align 8
  %.promoted22 = load i32, ptr %5, align 4
  %6 = getelementptr inbounds i8, ptr %0, i64 8
  %7 = getelementptr inbounds i8, ptr %0, i64 24
  br label %8

8:                                                ; preds = %.preheader, %31
  %.in = phi i32 [ %1, %.preheader ], [ %11, %31 ]
  %.023 = phi i32 [ 0, %.preheader ], [ %.1, %31 ]
  %9 = phi i32 [ %.promoted, %.preheader ], [ %33, %31 ]
  %10 = phi i32 [ %.promoted22, %.preheader ], [ %32, %31 ]
  %11 = add i32 %.in, -1
  %12 = lshr i32 %9, 1
  store i32 %12, ptr %4, align 8
  %13 = shl i32 %.023, 1
  %.not21 = icmp ult i32 %10, %12
  br i1 %.not21, label %17, label %14

14:                                               ; preds = %8
  %15 = sub i32 %10, %12
  store i32 %15, ptr %5, align 4
  %16 = or disjoint i32 %13, 1
  br label %17

17:                                               ; preds = %14, %8
  %18 = phi i32 [ %15, %14 ], [ %10, %8 ]
  %.1 = phi i32 [ %16, %14 ], [ %13, %8 ]
  %19 = icmp ult i32 %9, 33554432
  br i1 %19, label %20, label %31

20:                                               ; preds = %17
  %21 = shl nuw i32 %12, 8
  store i32 %21, ptr %4, align 8
  %22 = shl i32 %18, 8
  %23 = load ptr, ptr %0, align 8
  %24 = load ptr, ptr %6, align 8
  %.not.i = icmp ult ptr %23, %24
  br i1 %.not.i, label %26, label %25

25:                                               ; preds = %20
  store i32 1, ptr %7, align 8
  br label %get_byte.exit

26:                                               ; preds = %20
  %27 = load i8, ptr %23, align 1
  %28 = zext i8 %27 to i32
  %29 = getelementptr inbounds i8, ptr %23, i64 1
  store ptr %29, ptr %0, align 8
  br label %get_byte.exit

get_byte.exit:                                    ; preds = %25, %26
  %.0.i = phi i32 [ 255, %25 ], [ %28, %26 ]
  %30 = or disjoint i32 %.0.i, %22
  store i32 %30, ptr %5, align 4
  br label %31

31:                                               ; preds = %get_byte.exit, %17
  %32 = phi i32 [ %30, %get_byte.exit ], [ %18, %17 ]
  %33 = phi i32 [ %21, %get_byte.exit ], [ %12, %17 ]
  %.not = icmp eq i32 %11, 0
  br i1 %.not, label %.loopexit, label %8

.loopexit:                                        ; preds = %31, %2
  %.016 = phi i32 [ 0, %2 ], [ %.1, %31 ]
  ret i32 %.016
}